; Function Attrs: null_pointer_is_valid sspstrong uwtable
define internal noundef zeroext i16 @be_diag(ptr noundef %0, ptr noundef %1, ptr readnone captures(none) %2, i32 noundef %3, i32 noundef %4, ptr readnone captures(none) %5, i32 %6) #1 {
  %8 = load i32, ptr @hf_gsm_a_bssap_diag_error_pointer, align 4
  %9 = tail call ptr @proto_tree_add_item(ptr noundef %1, i32 noundef %8, ptr noundef %0, i32 noundef %3, i32 noundef 2, i32 noundef 0)
  %10 = icmp ult i32 %4, 3
  br i1 %10, label %16, label %11

11:                                               ; preds = %7
  %12 = add i32 %3, 2
  %13 = load i32, ptr @hf_gsm_a_bssap_diag_msg_rcv, align 4
  %14 = add i32 %4, -2
  %15 = tail call ptr @proto_tree_add_item(ptr noundef %1, i32 noundef %13, ptr noundef %0, i32 noundef %12, i32 noundef %14, i32 noundef 0)
  br label %16

16:                                               ; preds = %7, %11
  %.0 = trunc i32 %4 to i16
  ret i16 %.0
}